Certificate:
    Data:
        Version: 3 (0x2)
        Serial Number: 4096 (0x1000)
        Signature Algorithm: sha256WithRSAEncryption
        Issuer: C=US, ST=CA, L=TestCity, O=MyOrg, CN=MyTestRootCA
        Validity
            Not Before: Mar 21 07:40:55 2025 GMT
            Not After : Mar 21 07:40:55 2026 GMT
        Subject: CN=localhost
        Subject Public Key Info:
            Public Key Algorithm: rsaEncryption
                Public-Key: (2048 bit)
                Modulus:
                    00:d2:37:d8:07:d5:3f:d7:43:c8:d0:18:59:b5:de:
                    e5:cc:9b:e5:d2:b2:1a:5d:23:a2:37:e1:c8:74:76:
                    27:e4:22:44:bb:3f:38:96:d2:89:32:4d:ad:d6:2c:
                    4d:44:97:0c:67:79:58:af:d7:05:e4:e4:54:9c:d6:
                    f8:59:97:d6:d0:e9:38:6e:93:c1:29:37:3b:97:20:
                    c8:0c:26:b9:3e:69:ff:c9:bb:25:56:99:fc:65:1b:
                    81:d0:ec:5d:d1:dc:ad:8c:b0:a3:2f:3a:7b:b1:5b:
                    1a:e8:f4:87:da:6c:06:2f:74:46:d1:1b:3b:bc:0d:
                    e3:1f:82:37:04:88:25:b0:c8:88:f4:3a:56:0c:9f:
                    82:bc:61:76:d4:63:08:90:ae:0f:54:e2:32:b9:63:
                    b2:93:06:c5:3d:c5:74:0f:17:37:d1:75:7d:96:6a:
                    dc:20:fd:38:36:8c:19:83:c0:ec:d1:82:f9:8d:9b:
                    35:62:01:b3:7a:ed:af:0a:7e:8a:c3:2d:9f:18:93:
                    f7:a7:3a:88:43:bf:ce:d6:26:53:3a:aa:84:d0:38:
                    9d:e5:ed:91:c2:fa:79:36:0c:7a:fe:10:4b:53:90:
                    e3:0b:8c:f2:99:15:08:45:19:74:6e:2e:dc:b0:23:
                    66:fe:12:29:30:d4:ff:10:fc:4f:96:aa:f2:e1:a2:
                    c5:99
                Exponent: 65537 (0x10001)
        X509v3 extensions:
            X509v3 Basic Constraints: 
                CA:FALSE
            X509v3 Key Usage: 
                Digital Signature, Key Encipherment
            X509v3 Extended Key Usage: 
                TLS Web Server Authentication
            X509v3 Subject Key Identifier: 
                B4:41:F0:4F:0F:7F:C5:94:48:D2:BC:10:89:16:49:A1:C5:57:30:28
            X509v3 Authority Key Identifier: 
                8E:0E:51:07:C7:2D:D0:32:03:82:0A:51:EA:92:77:82:C5:F4:57:53
    Signature Algorithm: sha256WithRSAEncryption
    Signature Value:
        6f:21:ec:85:cf:25:3a:05:41:46:5b:4a:fe:b0:90:ba:25:38:
        3d:29:d7:4b:18:66:53:8c:a3:1f:c7:61:f8:7d:f4:80:60:ba:
        f6:08:fe:78:be:1d:b6:4e:0a:e3:6b:8d:db:00:fe:d9:78:0f:
        c6:ea:fb:8b:9d:4b:01:03:a8:50:ce:cf:2e:e8:2c:8c:b7:e8:
        4b:47:09:2f:69:e6:57:d5:c2:07:68:61:dd:60:df:48:18:d0:
        fd:98:50:21:a1:c0:d8:6b:cb:0e:5b:08:1e:82:e9:a4:bc:d4:
        1f:08:70:51:01:12:ea:0d:32:d5:12:1f:86:cc:ad:8f:03:54:
        31:b9:9b:dd:00:35:74:75:25:c7:ca:85:30:df:f4:4d:54:a5:
        bc:07:42:96:44:60:58:94:44:50:f6:8f:55:66:36:11:7c:c0:
        be:7d:de:f5:52:8e:51:02:61:57:76:51:b9:a6:3a:be:0a:bf:
        ae:1a:3c:aa:78:a1:5c:46:94:6b:5d:33:89:79:e2:e1:d8:66:
        da:ca:9a:78:dd:71:d6:17:ae:74:54:76:10:e5:92:60:ff:af:
        86:9f:7e:53:d4:af:1b:b7:05:b8:ed:f1:7b:3e:b3:0f:86:1e:
        93:a9:ff:11:ab:1e:b5:66:96:5f:ae:9c:38:fd:9c:cf:58:38:
        4b:9d:b6:f6
-----BEGIN CERTIFICATE-----
MIIDUzCCAjugAwIBAgICEAAwDQYJKoZIhvcNAQELBQAwVDELMAkGA1UEBhMCVVMx
CzAJBgNVBAgMAkNBMREwDwYDVQQHDAhUZXN0Q2l0eTEOMAwGA1UECgwFTXlPcmcx
FTATBgNVBAMMDE15VGVzdFJvb3RDQTAeFw0yNTAzMjEwNzQwNTVaFw0yNjAzMjEw
NzQwNTVaMBQxEjAQBgNVBAMMCWxvY2FsaG9zdDCCASIwDQYJKoZIhvcNAQEBBQAD
ggEPADCCAQoCggEBANI32AfVP9dDyNAYWbXe5cyb5dKyGl0jojfhyHR2J+QiRLs/
OJbSiTJNrdYsTUSXDGd5WK/XBeTkVJzW+FmX1tDpOG6TwSk3O5cgyAwmuT5p/8m7
JVaZ/GUbgdDsXdHcrYywoy86e7FbGuj0h9psBi90RtEbO7wN4x+CNwSIJbDIiPQ6
VgyfgrxhdtRjCJCuD1TiMrljspMGxT3FdA8XN9F1fZZq3CD9ODaMGYPA7NGC+Y2b
NWIBs3rtrwp+isMtnxiT96c6iEO/ztYmUzqqhNA4neXtkcL6eTYMev4QS1OQ4wuM
8pkVCEUZdG4u3LAjZv4SKTDU/xD8T5aq8uGixZkCAwEAAaNvMG0wCQYDVR0TBAIw
ADALBgNVHQ8EBAMCBaAwEwYDVR0lBAwwCgYIKwYBBQUHAwEwHQYDVR0OBBYEFLRB
8E8Pf8WUSNK8EIkWSaHFVzAoMB8GA1UdIwQYMBaAFI4OUQfHLdAyA4IKUeqSd4LF
9FdTMA0GCSqGSIb3DQEBCwUAA4IBAQBvIeyFzyU6BUFGW0r+sJC6JTg9KddLGGZT
jKMfx2H4ffSAYLr2CP54vh22Tgrja43bAP7ZeA/G6vuLnUsBA6hQzs8u6CyMt+hL
RwkvaeZX1cIHaGHdYN9IGND9mFAhocDYa8sOWwgegumkvNQfCHBRARLqDTLVEh+G
zK2PA1QxuZvdADV0dSXHyoUw3/RNVKW8B0KWRGBYlERQ9o9VZjYRfMC+fd71Uo5R
AmFXdlG5pjq+Cr+uGjyqeKFcRpRrXTOJeeLh2Gbaypp43XHWF650VHYQ5ZJg/6+G
n35T1K8btwW47fF7PrMPhh6Tqf8Rqx61ZpZfrpw4/ZzPWDhLnbb2
-----END CERTIFICATE-----
